target datalayout = "e-m:e-p270:32:32-p271:32:32-p272:64:64-i64:64-i128:128-f80:128-n8:16:32:64-S128"
target triple = "x86_64-pc-linux-gnu"

%"class.CodeCache::UnlinkingScope" = type { %class.ClosureIsUnloadingBehaviour, ptr }
%class.ClosureIsUnloadingBehaviour = type { %class.IsUnloadingBehaviour, ptr }
%class.IsUnloadingBehaviour = type { ptr }

@_ZN9CodeCache16_unloading_cycleE = hidden global i8 1, align 1
@_ZTV27ClosureIsUnloadingBehaviour = external unnamed_addr constant { [3 x ptr] }, align 8
@_ZTV20IsUnloadingBehaviour = linkonce_odr hidden unnamed_addr constant { [3 x ptr] } { [3 x ptr] [ptr null, ptr null, ptr @__cxa_pure_virtual] }, comdat, align 8
@_ZN20IsUnloadingBehaviour8_currentE = external global ptr, align 8

; Function Attrs: mustprogress nounwind uwtable
define linkonce_odr hidden void @_ZN20IsUnloadingBehaviourC2Ev(ptr noundef nonnull align 8 dereferenceable(8) %0) unnamed_addr #1 comdat align 2 {
  %2 = alloca ptr, align 8
  store ptr %0, ptr %2, align 8
  %3 = load ptr, ptr %2, align 8
  store ptr getelementptr inbounds inrange(-16, 8) ({ [3 x ptr] }, ptr @_ZTV20IsUnloadingBehaviour, i32 0, i32 0, i32 2), ptr %3, align 8
  ret void
}

; Function Attrs: mustprogress nounwind uwtable
define hidden void @_ZN9CodeCache25increment_unloading_cycleEv() #1 align 2 {
  %1 = load i8, ptr @_ZN9CodeCache16_unloading_cycleE, align 1
  %2 = zext i8 %1 to i32
  %3 = add nsw i32 %2, 1
  %4 = srem i32 %3, 4
  %5 = trunc i32 %4 to i8
  store i8 %5, ptr @_ZN9CodeCache16_unloading_cycleE, align 1
  %6 = load i8, ptr @_ZN9CodeCache16_unloading_cycleE, align 1
  %7 = zext i8 %6 to i32
  %8 = icmp eq i32 %7, 0
  br i1 %8, label %9, label %10

9:                                                ; preds = %0
  store i8 1, ptr @_ZN9CodeCache16_unloading_cycleE, align 1
  br label %10

10:                                               ; preds = %9, %0
  ret void
}

; Function Attrs: mustprogress nounwind uwtable
define linkonce_odr hidden void @_ZN20IsUnloadingBehaviour11set_currentEPS_(ptr noundef %0) #1 comdat align 2 {
  %2 = alloca ptr, align 8
  store ptr %0, ptr %2, align 8
  %3 = load ptr, ptr %2, align 8
  store ptr %3, ptr @_ZN20IsUnloadingBehaviour8_currentE, align 8
  ret void
}

; Function Attrs: mustprogress nounwind uwtable
define linkonce_odr hidden noundef ptr @_ZN20IsUnloadingBehaviour7currentEv() #1 comdat align 2 {
  %1 = load ptr, ptr @_ZN20IsUnloadingBehaviour8_currentE, align 8
  ret ptr %1
}

; Function Attrs: mustprogress nounwind uwtable
define linkonce_odr hidden void @_ZN27ClosureIsUnloadingBehaviourC2EP17BoolObjectClosure(ptr noundef nonnull align 8 dereferenceable(16) %0, ptr noundef %1) unnamed_addr #1 comdat align 2 {
  %3 = alloca ptr, align 8
  %4 = alloca ptr, align 8
  store ptr %0, ptr %3, align 8
  store ptr %1, ptr %4, align 8
  %5 = load ptr, ptr %3, align 8
  call void @_ZN20IsUnloadingBehaviourC2Ev(ptr noundef nonnull align 8 dereferenceable(8) %5) #7
  store ptr getelementptr inbounds inrange(-16, 8) ({ [3 x ptr] }, ptr @_ZTV27ClosureIsUnloadingBehaviour, i32 0, i32 0, i32 2), ptr %5, align 8
  %6 = getelementptr inbounds %class.ClosureIsUnloadingBehaviour, ptr %5, i32 0, i32 1
  %7 = load ptr, ptr %4, align 8
  store ptr %7, ptr %6, align 8
  ret void
}

; Function Attrs: mustprogress nounwind uwtable
define hidden void @_ZN9CodeCache14UnlinkingScopeC2EP17BoolObjectClosure(ptr noundef nonnull align 8 dereferenceable(24) %0, ptr noundef %1) unnamed_addr #1 align 2 {
  %3 = alloca ptr, align 8
  %4 = alloca ptr, align 8
  store ptr %0, ptr %3, align 8
  store ptr %1, ptr %4, align 8
  %5 = load ptr, ptr %3, align 8
  %6 = getelementptr inbounds %"class.CodeCache::UnlinkingScope", ptr %5, i32 0, i32 0
  %7 = load ptr, ptr %4, align 8
  call void @_ZN27ClosureIsUnloadingBehaviourC2EP17BoolObjectClosure(ptr noundef nonnull align 8 dereferenceable(16) %6, ptr noundef %7)
  %8 = call noundef ptr @_ZN20IsUnloadingBehaviour7currentEv()
  %9 = getelementptr inbounds %"class.CodeCache::UnlinkingScope", ptr %5, i32 0, i32 1
  store ptr %8, ptr %9, align 8
  %10 = getelementptr inbounds %"class.CodeCache::UnlinkingScope", ptr %5, i32 0, i32 0
  call void @_ZN20IsUnloadingBehaviour11set_currentEPS_(ptr noundef %10)
  call void @_ZN9CodeCache25increment_unloading_cycleEv()
  call void @_ZN17DependencyContext14cleaning_startEv()
  ret void
}