; Function Attrs: mustprogress nounwind uwtable
define hidden void @_ZN9CodeCache14UnlinkingScopeC2EP17BoolObjectClosure(ptr noundef nonnull align 8 dereferenceable(24) %0, ptr noundef %1) unnamed_addr #1 align 2 {
  store ptr getelementptr inbounds inrange(-16, 8) (i8, ptr @_ZTV27ClosureIsUnloadingBehaviour, i64 16), ptr %0, align 8
  %3 = getelementptr inbounds i8, ptr %0, i64 8
  store ptr %1, ptr %3, align 8
  %4 = load ptr, ptr @_ZN20IsUnloadingBehaviour8_currentE, align 8
  %5 = getelementptr inbounds i8, ptr %0, i64 16
  store ptr %4, ptr %5, align 8
  store ptr %0, ptr @_ZN20IsUnloadingBehaviour8_currentE, align 8
  %6 = load i8, ptr @_ZN9CodeCache16_unloading_cycleE, align 1
  %7 = add i8 %6, 1
  %8 = and i8 %7, 3
  %spec.store.select.i = tail call i8 @llvm.umax.i8(i8 %8, i8 1)
  store i8 %spec.store.select.i, ptr @_ZN9CodeCache16_unloading_cycleE, align 1
  tail call void @_ZN17DependencyContext14cleaning_startEv() #20
  ret void
}